; Function Attrs: mustprogress nofree norecurse nosync nounwind willreturn memory(read, inaccessiblemem: none) uwtable
define hidden noundef zeroext i1 @_ZNK16char_decl_plugin12are_distinctEP3appS1_(ptr noundef nonnull readonly align 8 captures(none) dereferenceable(40) %0, ptr noundef readonly captures(address) %1, ptr noundef readonly captures(address) %2) unnamed_addr #11 align 2 {
  %.not = icmp eq ptr %1, %2
  br i1 %.not, label %_Z9is_app_ofPK4exprii.exit7, label %4

4:                                                ; preds = %3
  %5 = getelementptr inbounds nuw i8, ptr %0, i64 16
  %6 = load i32, ptr %5, align 8, !tbaa !10
  %7 = getelementptr inbounds nuw i8, ptr %1, i64 4
  %8 = load i32, ptr %7, align 4
  %9 = and i32 %8, 65535
  %10 = icmp eq i32 %9, 0
  br i1 %10, label %11, label %_Z9is_app_ofPK4exprii.exit7

11:                                               ; preds = %4
  %12 = getelementptr inbounds nuw i8, ptr %1, i64 16
  %13 = load ptr, ptr %12, align 8, !tbaa !122
  %14 = getelementptr inbounds nuw i8, ptr %13, i64 24
  %15 = load ptr, ptr %14, align 8, !tbaa !103
  %.not.i.i.i = icmp eq ptr %15, null
  br i1 %.not.i.i.i, label %_Z9is_app_ofPK4exprii.exit7, label %_Z9is_app_ofPK4exprii.exit

_Z9is_app_ofPK4exprii.exit:                       ; preds = %11
  %16 = load i32, ptr %15, align 8, !tbaa !85
  %17 = icmp eq i32 %16, %6
  %18 = getelementptr inbounds nuw i8, ptr %15, i64 4
  %19 = load i32, ptr %18, align 4
  %20 = icmp eq i32 %19, 0
  %21 = select i1 %17, i1 %20, i1 false
  br i1 %21, label %22, label %_Z9is_app_ofPK4exprii.exit7

22:                                               ; preds = %_Z9is_app_ofPK4exprii.exit
  %23 = getelementptr inbounds nuw i8, ptr %2, i64 4
  %24 = load i32, ptr %23, align 4
  %25 = and i32 %24, 65535
  %26 = icmp eq i32 %25, 0
  br i1 %26, label %27, label %_Z9is_app_ofPK4exprii.exit7

27:                                               ; preds = %22
  %28 = getelementptr inbounds nuw i8, ptr %2, i64 16
  %29 = load ptr, ptr %28, align 8, !tbaa !122
  %30 = getelementptr inbounds nuw i8, ptr %29, i64 24
  %31 = load ptr, ptr %30, align 8, !tbaa !103
  %.not.i.i.i6 = icmp eq ptr %31, null
  br i1 %.not.i.i.i6, label %_Z9is_app_ofPK4exprii.exit7, label %32

32:                                               ; preds = %27
  %33 = load i32, ptr %31, align 8, !tbaa !85
  %34 = icmp eq i32 %33, %6
  %35 = getelementptr inbounds nuw i8, ptr %31, i64 4
  %36 = load i32, ptr %35, align 4
  %37 = icmp eq i32 %36, 0
  %38 = select i1 %34, i1 %37, i1 false
  br label %_Z9is_app_ofPK4exprii.exit7

_Z9is_app_ofPK4exprii.exit7:                      ; preds = %11, %4, %32, %27, %22, %_Z9is_app_ofPK4exprii.exit, %3
  %39 = phi i1 [ false, %_Z9is_app_ofPK4exprii.exit ], [ false, %3 ], [ false, %22 ], [ false, %27 ], [ %38, %32 ], [ false, %4 ], [ false, %11 ]
  ret i1 %39
}